target datalayout = "e-m:e-p270:32:32-p271:32:32-p272:64:64-i64:64-i128:128-f80:128-n8:16:32:64-S128"
target triple = "x86_64-pc-linux-gnu"

%struct.mbedtls_chachapoly_context = type { %struct.mbedtls_chacha20_context, %struct.mbedtls_poly1305_context, i64, i64, i32, i32 }
%struct.mbedtls_chacha20_context = type { [16 x i32], [64 x i8], i64 }
%struct.mbedtls_poly1305_context = type { [4 x i32], [4 x i32], [5 x i32], [16 x i8], i64 }

; Function Attrs: nounwind uwtable
define hidden i32 @mbedtls_chachapoly_update_aad(ptr noundef %0, ptr noundef %1, i64 noundef %2) #0 {
  %4 = alloca i32, align 4
  %5 = alloca ptr, align 8
  %6 = alloca ptr, align 8
  %7 = alloca i64, align 8
  store ptr %0, ptr %5, align 8, !tbaa !3
  store ptr %1, ptr %6, align 8, !tbaa !17
  store i64 %2, ptr %7, align 8, !tbaa !20
  %8 = load ptr, ptr %5, align 8, !tbaa !3
  %9 = getelementptr inbounds nuw %struct.mbedtls_chachapoly_context, ptr %8, i32 0, i32 4
  %10 = load i32, ptr %9, align 8, !tbaa !15
  %11 = icmp ne i32 %10, 1
  br i1 %11, label %12, label %13

12:                                               ; preds = %3
  store i32 -84, ptr %4, align 4
  br label %24

13:                                               ; preds = %3
  %14 = load i64, ptr %7, align 8, !tbaa !20
  %15 = load ptr, ptr %5, align 8, !tbaa !3
  %16 = getelementptr inbounds nuw %struct.mbedtls_chachapoly_context, ptr %15, i32 0, i32 2
  %17 = load i64, ptr %16, align 8, !tbaa !8
  %18 = add i64 %17, %14
  store i64 %18, ptr %16, align 8, !tbaa !8
  %19 = load ptr, ptr %5, align 8, !tbaa !3
  %20 = getelementptr inbounds nuw %struct.mbedtls_chachapoly_context, ptr %19, i32 0, i32 1
  %21 = load ptr, ptr %6, align 8, !tbaa !17
  %22 = load i64, ptr %7, align 8, !tbaa !20
  %23 = call i32 @mbedtls_poly1305_update(ptr noundef %20, ptr noundef %21, i64 noundef %22)
  store i32 %23, ptr %4, align 4
  br label %24

24:                                               ; preds = %13, %12
  %25 = load i32, ptr %4, align 4
  ret i32 %25
}

; Function Attrs: nounwind uwtable
define hidden i32 @mbedtls_chachapoly_starts(ptr noundef %0, ptr noundef %1, i32 noundef %2) #0 {
  %4 = alloca ptr, align 8
  %5 = alloca ptr, align 8
  %6 = alloca i32, align 4
  %7 = alloca i32, align 4
  %8 = alloca [64 x i8], align 16
  store ptr %0, ptr %4, align 8, !tbaa !3
  store ptr %1, ptr %5, align 8, !tbaa !17
  store i32 %2, ptr %6, align 4, !tbaa !19
  call void @llvm.lifetime.start.p0(i64 4, ptr %7) #7
  store i32 -110, ptr %7, align 4, !tbaa !19
  call void @llvm.lifetime.start.p0(i64 64, ptr %8) #7
  %9 = load ptr, ptr %4, align 8, !tbaa !3
  %10 = getelementptr inbounds nuw %struct.mbedtls_chachapoly_context, ptr %9, i32 0, i32 0
  %11 = load ptr, ptr %5, align 8, !tbaa !17
  %12 = call i32 @mbedtls_chacha20_starts(ptr noundef %10, ptr noundef %11, i32 noundef 0)
  store i32 %12, ptr %7, align 4, !tbaa !19
  %13 = load i32, ptr %7, align 4, !tbaa !19
  %14 = icmp ne i32 %13, 0
  br i1 %14, label %15, label %16

15:                                               ; preds = %3
  br label %44

16:                                               ; preds = %3
  %17 = getelementptr inbounds [64 x i8], ptr %8, i64 0, i64 0
  call void @llvm.memset.p0.i64(ptr align 16 %17, i8 0, i64 64, i1 false)
  %18 = load ptr, ptr %4, align 8, !tbaa !3
  %19 = getelementptr inbounds nuw %struct.mbedtls_chachapoly_context, ptr %18, i32 0, i32 0
  %20 = getelementptr inbounds [64 x i8], ptr %8, i64 0, i64 0
  %21 = getelementptr inbounds [64 x i8], ptr %8, i64 0, i64 0
  %22 = call i32 @mbedtls_chacha20_update(ptr noundef %19, i64 noundef 64, ptr noundef %20, ptr noundef %21)
  store i32 %22, ptr %7, align 4, !tbaa !19
  %23 = load i32, ptr %7, align 4, !tbaa !19
  %24 = icmp ne i32 %23, 0
  br i1 %24, label %25, label %26

25:                                               ; preds = %16
  br label %44

26:                                               ; preds = %16
  %27 = load ptr, ptr %4, align 8, !tbaa !3
  %28 = getelementptr inbounds nuw %struct.mbedtls_chachapoly_context, ptr %27, i32 0, i32 1
  %29 = getelementptr inbounds [64 x i8], ptr %8, i64 0, i64 0
  %30 = call i32 @mbedtls_poly1305_starts(ptr noundef %28, ptr noundef %29)
  store i32 %30, ptr %7, align 4, !tbaa !19
  %31 = load i32, ptr %7, align 4, !tbaa !19
  %32 = icmp eq i32 %31, 0
  br i1 %32, label %33, label %43

33:                                               ; preds = %26
  %34 = load ptr, ptr %4, align 8, !tbaa !3
  %35 = getelementptr inbounds nuw %struct.mbedtls_chachapoly_context, ptr %34, i32 0, i32 2
  store i64 0, ptr %35, align 8, !tbaa !8
  %36 = load ptr, ptr %4, align 8, !tbaa !3
  %37 = getelementptr inbounds nuw %struct.mbedtls_chachapoly_context, ptr %36, i32 0, i32 3
  store i64 0, ptr %37, align 8, !tbaa !14
  %38 = load ptr, ptr %4, align 8, !tbaa !3
  %39 = getelementptr inbounds nuw %struct.mbedtls_chachapoly_context, ptr %38, i32 0, i32 4
  store i32 1, ptr %39, align 8, !tbaa !15
  %40 = load i32, ptr %6, align 4, !tbaa !19
  %41 = load ptr, ptr %4, align 8, !tbaa !3
  %42 = getelementptr inbounds nuw %struct.mbedtls_chachapoly_context, ptr %41, i32 0, i32 5
  store i32 %40, ptr %42, align 4, !tbaa !16
  br label %43

43:                                               ; preds = %33, %26
  br label %44

44:                                               ; preds = %43, %25, %15
  %45 = getelementptr inbounds [64 x i8], ptr %8, i64 0, i64 0
  call void @mbedtls_platform_zeroize(ptr noundef %45, i64 noundef 64)
  %46 = load i32, ptr %7, align 4, !tbaa !19
  call void @llvm.lifetime.end.p0(i64 64, ptr %8) #7
  call void @llvm.lifetime.end.p0(i64 4, ptr %7) #7
  ret i32 %46
}

; Function Attrs: nounwind uwtable
define internal i32 @chachapoly_crypt_and_tag(ptr noundef %0, i32 noundef %1, i64 noundef %2, ptr noundef %3, ptr noundef %4, i64 noundef %5, ptr noundef %6, ptr noundef %7, ptr noundef %8) #0 {
  %10 = alloca ptr, align 8
  %11 = alloca i32, align 4
  %12 = alloca i64, align 8
  %13 = alloca ptr, align 8
  %14 = alloca ptr, align 8
  %15 = alloca i64, align 8
  %16 = alloca ptr, align 8
  %17 = alloca ptr, align 8
  %18 = alloca ptr, align 8
  %19 = alloca i32, align 4
  store ptr %0, ptr %10, align 8, !tbaa !3
  store i32 %1, ptr %11, align 4, !tbaa !19
  store i64 %2, ptr %12, align 8, !tbaa !20
  store ptr %3, ptr %13, align 8, !tbaa !17
  store ptr %4, ptr %14, align 8, !tbaa !17
  store i64 %5, ptr %15, align 8, !tbaa !20
  store ptr %6, ptr %16, align 8, !tbaa !17
  store ptr %7, ptr %17, align 8, !tbaa !17
  store ptr %8, ptr %18, align 8, !tbaa !17
  call void @llvm.lifetime.start.p0(i64 4, ptr %19) #7
  store i32 -110, ptr %19, align 4, !tbaa !19
  %20 = load ptr, ptr %10, align 8, !tbaa !3
  %21 = load ptr, ptr %13, align 8, !tbaa !17
  %22 = load i32, ptr %11, align 4, !tbaa !19
  %23 = call i32 @mbedtls_chachapoly_starts(ptr noundef %20, ptr noundef %21, i32 noundef %22)
  store i32 %23, ptr %19, align 4, !tbaa !19
  %24 = load i32, ptr %19, align 4, !tbaa !19
  %25 = icmp ne i32 %24, 0
  br i1 %25, label %26, label %27

26:                                               ; preds = %9
  br label %48

27:                                               ; preds = %9
  %28 = load ptr, ptr %10, align 8, !tbaa !3
  %29 = load ptr, ptr %14, align 8, !tbaa !17
  %30 = load i64, ptr %15, align 8, !tbaa !20
  %31 = call i32 @mbedtls_chachapoly_update_aad(ptr noundef %28, ptr noundef %29, i64 noundef %30)
  store i32 %31, ptr %19, align 4, !tbaa !19
  %32 = load i32, ptr %19, align 4, !tbaa !19
  %33 = icmp ne i32 %32, 0
  br i1 %33, label %34, label %35

34:                                               ; preds = %27
  br label %48

35:                                               ; preds = %27
  %36 = load ptr, ptr %10, align 8, !tbaa !3
  %37 = load i64, ptr %12, align 8, !tbaa !20
  %38 = load ptr, ptr %16, align 8, !tbaa !17
  %39 = load ptr, ptr %17, align 8, !tbaa !17
  %40 = call i32 @mbedtls_chachapoly_update(ptr noundef %36, i64 noundef %37, ptr noundef %38, ptr noundef %39)
  store i32 %40, ptr %19, align 4, !tbaa !19
  %41 = load i32, ptr %19, align 4, !tbaa !19
  %42 = icmp ne i32 %41, 0
  br i1 %42, label %43, label %44

43:                                               ; preds = %35
  br label %48

44:                                               ; preds = %35
  %45 = load ptr, ptr %10, align 8, !tbaa !3
  %46 = load ptr, ptr %18, align 8, !tbaa !17
  %47 = call i32 @mbedtls_chachapoly_finish(ptr noundef %45, ptr noundef %46)
  store i32 %47, ptr %19, align 4, !tbaa !19
  br label %48

48:                                               ; preds = %44, %43, %34, %26
  %49 = load i32, ptr %19, align 4, !tbaa !19
  call void @llvm.lifetime.end.p0(i64 4, ptr %19) #7
  ret i32 %49
}