; Function Attrs: nounwind uwtable
define internal fastcc i32 @chachapoly_crypt_and_tag(ptr noundef %0, i32 noundef range(i32 0, 2) %1, i64 noundef %2, ptr noundef %3, ptr noundef %4, i64 noundef %5, ptr noundef %6, ptr noundef %7, ptr noundef %8) unnamed_addr #0 {
  %10 = alloca [64 x i8], align 16
  call void @llvm.lifetime.start.p0(i64 64, ptr nonnull %10) #7
  %11 = tail call i32 @mbedtls_chacha20_starts(ptr noundef %0, ptr noundef %3, i32 noundef 0) #7
  %.not.i = icmp eq i32 %11, 0
  br i1 %.not.i, label %12, label %mbedtls_chachapoly_starts.exit.thread

12:                                               ; preds = %9
  call void @llvm.memset.p0.i64(ptr noundef nonnull align 16 dereferenceable(64) %10, i8 0, i64 64, i1 false)
  %13 = call i32 @mbedtls_chacha20_update(ptr noundef %0, i64 noundef 64, ptr noundef nonnull %10, ptr noundef nonnull %10) #7
  %.not15.i = icmp eq i32 %13, 0
  br i1 %.not15.i, label %14, label %mbedtls_chachapoly_starts.exit.thread

14:                                               ; preds = %12
  %15 = getelementptr inbounds nuw i8, ptr %0, i64 136
  %16 = call i32 @mbedtls_poly1305_starts(ptr noundef nonnull %15, ptr noundef nonnull %10) #7
  %17 = icmp eq i32 %16, 0
  br i1 %17, label %18, label %mbedtls_chachapoly_starts.exit.thread

mbedtls_chachapoly_starts.exit.thread:            ; preds = %9, %12, %14
  %.0.i.ph = phi i32 [ %16, %14 ], [ %13, %12 ], [ %11, %9 ]
  call void @mbedtls_platform_zeroize(ptr noundef nonnull %10, i64 noundef 64) #7
  call void @llvm.lifetime.end.p0(i64 64, ptr nonnull %10) #7
  br label %mbedtls_chachapoly_update_aad.exit.thread

18:                                               ; preds = %14
  %19 = getelementptr inbounds nuw i8, ptr %0, i64 216
  %20 = getelementptr inbounds nuw i8, ptr %0, i64 232
  call void @llvm.memset.p0.i64(ptr noundef nonnull align 8 dereferenceable(16) %19, i8 0, i64 16, i1 false)
  store i32 1, ptr %20, align 8, !tbaa !3
  %21 = getelementptr inbounds nuw i8, ptr %0, i64 236
  store i32 %1, ptr %21, align 4, !tbaa !11
  call void @mbedtls_platform_zeroize(ptr noundef nonnull %10, i64 noundef 64) #7
  call void @llvm.lifetime.end.p0(i64 64, ptr nonnull %10) #7
  %22 = load i32, ptr %20, align 8, !tbaa !3
  %.not.i20 = icmp eq i32 %22, 1
  br i1 %.not.i20, label %mbedtls_chachapoly_update_aad.exit, label %mbedtls_chachapoly_update_aad.exit.thread

mbedtls_chachapoly_update_aad.exit:               ; preds = %18
  %23 = load i64, ptr %19, align 8, !tbaa !12
  %24 = add i64 %23, %5
  store i64 %24, ptr %19, align 8, !tbaa !12
  %25 = call i32 @mbedtls_poly1305_update(ptr noundef nonnull %15, ptr noundef %4, i64 noundef %5) #7
  %.not18 = icmp eq i32 %25, 0
  br i1 %.not18, label %26, label %mbedtls_chachapoly_update_aad.exit.thread

26:                                               ; preds = %mbedtls_chachapoly_update_aad.exit
  %27 = call i32 @mbedtls_chachapoly_update(ptr noundef nonnull %0, i64 noundef %2, ptr noundef %6, ptr noundef %7)
  %.not19 = icmp eq i32 %27, 0
  br i1 %.not19, label %28, label %mbedtls_chachapoly_update_aad.exit.thread

28:                                               ; preds = %26
  %29 = call i32 @mbedtls_chachapoly_finish(ptr noundef nonnull %0, ptr noundef %8)
  br label %mbedtls_chachapoly_update_aad.exit.thread

mbedtls_chachapoly_update_aad.exit.thread:        ; preds = %18, %mbedtls_chachapoly_starts.exit.thread, %26, %mbedtls_chachapoly_update_aad.exit, %28
  %.0 = phi i32 [ %25, %mbedtls_chachapoly_update_aad.exit ], [ %27, %26 ], [ %29, %28 ], [ %.0.i.ph, %mbedtls_chachapoly_starts.exit.thread ], [ -84, %18 ]
  ret i32 %.0
}